target datalayout = "e-m:e-p270:32:32-p271:32:32-p272:64:64-i64:64-i128:128-f80:128-n8:16:32:64-S128"
target triple = "x86_64-pc-linux-gnu"

; Function Attrs: nounwind uwtable
define dso_local i32 @lpValidateIntegrity(ptr noundef %0, i64 noundef %1, i32 noundef %2, ptr noundef %3, ptr noundef %4) #0 {
  %6 = alloca i32, align 4
  %7 = alloca ptr, align 8
  %8 = alloca i64, align 8
  %9 = alloca i32, align 4
  %10 = alloca ptr, align 8
  %11 = alloca ptr, align 8
  %12 = alloca i64, align 8
  %13 = alloca i32, align 4
  %14 = alloca i32, align 4
  %15 = alloca i32, align 4
  %16 = alloca ptr, align 8
  %17 = alloca ptr, align 8
  store ptr %0, ptr %7, align 8, !tbaa !5
  store i64 %1, ptr %8, align 8, !tbaa !10
  store i32 %2, ptr %9, align 4, !tbaa !15
  store ptr %3, ptr %10, align 8, !tbaa !19
  store ptr %4, ptr %11, align 8, !tbaa !19
  %18 = load i64, ptr %8, align 8, !tbaa !10
  %19 = icmp ult i64 %18, 7
  br i1 %19, label %20, label %21

20:                                               ; preds = %5
  store i32 0, ptr %6, align 4
  br label %131

21:                                               ; preds = %5
  call void @llvm.lifetime.start.p0(i64 8, ptr %12) #10
  %22 = load ptr, ptr %7, align 8, !tbaa !5
  %23 = getelementptr inbounds i8, ptr %22, i64 0
  %24 = load i8, ptr %23, align 1, !tbaa !12
  %25 = zext i8 %24 to i32
  %26 = shl i32 %25, 0
  %27 = load ptr, ptr %7, align 8, !tbaa !5
  %28 = getelementptr inbounds i8, ptr %27, i64 1
  %29 = load i8, ptr %28, align 1, !tbaa !12
  %30 = zext i8 %29 to i32
  %31 = shl i32 %30, 8
  %32 = or i32 %26, %31
  %33 = load ptr, ptr %7, align 8, !tbaa !5
  %34 = getelementptr inbounds i8, ptr %33, i64 2
  %35 = load i8, ptr %34, align 1, !tbaa !12
  %36 = zext i8 %35 to i32
  %37 = shl i32 %36, 16
  %38 = or i32 %32, %37
  %39 = load ptr, ptr %7, align 8, !tbaa !5
  %40 = getelementptr inbounds i8, ptr %39, i64 3
  %41 = load i8, ptr %40, align 1, !tbaa !12
  %42 = zext i8 %41 to i32
  %43 = shl i32 %42, 24
  %44 = or i32 %38, %43
  %45 = zext i32 %44 to i64
  store i64 %45, ptr %12, align 8, !tbaa !10
  %46 = load i64, ptr %12, align 8, !tbaa !10
  %47 = load i64, ptr %8, align 8, !tbaa !10
  %48 = icmp ne i64 %46, %47
  br i1 %48, label %49, label %50

49:                                               ; preds = %21
  store i32 0, ptr %6, align 4
  store i32 1, ptr %13, align 4
  br label %130

50:                                               ; preds = %21
  %51 = load ptr, ptr %7, align 8, !tbaa !5
  %52 = load i64, ptr %8, align 8, !tbaa !10
  %53 = sub i64 %52, 1
  %54 = getelementptr inbounds nuw i8, ptr %51, i64 %53
  %55 = load i8, ptr %54, align 1, !tbaa !12
  %56 = zext i8 %55 to i32
  %57 = icmp ne i32 %56, 255
  br i1 %57, label %58, label %59

58:                                               ; preds = %50
  store i32 0, ptr %6, align 4
  store i32 1, ptr %13, align 4
  br label %130

59:                                               ; preds = %50
  %60 = load i32, ptr %9, align 4, !tbaa !15
  %61 = icmp ne i32 %60, 0
  br i1 %61, label %63, label %62

62:                                               ; preds = %59
  store i32 1, ptr %6, align 4
  store i32 1, ptr %13, align 4
  br label %130

63:                                               ; preds = %59
  call void @llvm.lifetime.start.p0(i64 4, ptr %14) #10
  store i32 0, ptr %14, align 4, !tbaa !15
  call void @llvm.lifetime.start.p0(i64 4, ptr %15) #10
  %64 = load ptr, ptr %7, align 8, !tbaa !5
  %65 = getelementptr inbounds i8, ptr %64, i64 4
  %66 = load i8, ptr %65, align 1, !tbaa !12
  %67 = zext i8 %66 to i32
  %68 = shl i32 %67, 0
  %69 = load ptr, ptr %7, align 8, !tbaa !5
  %70 = getelementptr inbounds i8, ptr %69, i64 5
  %71 = load i8, ptr %70, align 1, !tbaa !12
  %72 = zext i8 %71 to i32
  %73 = shl i32 %72, 8
  %74 = or i32 %68, %73
  store i32 %74, ptr %15, align 4, !tbaa !15
  call void @llvm.lifetime.start.p0(i64 8, ptr %16) #10
  %75 = load ptr, ptr %7, align 8, !tbaa !5
  %76 = getelementptr inbounds i8, ptr %75, i64 6
  store ptr %76, ptr %16, align 8, !tbaa !5
  br label %77

77:                                               ; preds = %111, %63
  %78 = load ptr, ptr %16, align 8, !tbaa !5
  %79 = icmp ne ptr %78, null
  br i1 %79, label %80, label %86

80:                                               ; preds = %77
  %81 = load ptr, ptr %16, align 8, !tbaa !5
  %82 = getelementptr inbounds i8, ptr %81, i64 0
  %83 = load i8, ptr %82, align 1, !tbaa !12
  %84 = zext i8 %83 to i32
  %85 = icmp ne i32 %84, 255
  br label %86

86:                                               ; preds = %80, %77
  %87 = phi i1 [ false, %77 ], [ %85, %80 ]
  br i1 %87, label %88, label %112

88:                                               ; preds = %86
  call void @llvm.lifetime.start.p0(i64 8, ptr %17) #10
  %89 = load ptr, ptr %16, align 8, !tbaa !5
  store ptr %89, ptr %17, align 8, !tbaa !5
  %90 = load ptr, ptr %7, align 8, !tbaa !5
  %91 = load i64, ptr %12, align 8, !tbaa !10
  %92 = call i32 @lpValidateNext(ptr noundef %90, ptr noundef %16, i64 noundef %91)
  %93 = icmp ne i32 %92, 0
  br i1 %93, label %95, label %94

94:                                               ; preds = %88
  store i32 0, ptr %6, align 4
  store i32 1, ptr %13, align 4
  br label %109

95:                                               ; preds = %88
  %96 = load ptr, ptr %10, align 8, !tbaa !19
  %97 = icmp ne ptr %96, null
  br i1 %97, label %98, label %106

98:                                               ; preds = %95
  %99 = load ptr, ptr %10, align 8, !tbaa !19
  %100 = load ptr, ptr %17, align 8, !tbaa !5
  %101 = load i32, ptr %15, align 4, !tbaa !15
  %102 = load ptr, ptr %11, align 8, !tbaa !19
  %103 = call i32 %99(ptr noundef %100, i32 noundef %101, ptr noundef %102)
  %104 = icmp ne i32 %103, 0
  br i1 %104, label %106, label %105

105:                                              ; preds = %98
  store i32 0, ptr %6, align 4
  store i32 1, ptr %13, align 4
  br label %109

106:                                              ; preds = %98, %95
  %107 = load i32, ptr %14, align 4, !tbaa !15
  %108 = add i32 %107, 1
  store i32 %108, ptr %14, align 4, !tbaa !15
  store i32 0, ptr %13, align 4
  br label %109

109:                                              ; preds = %106, %105, %94
  call void @llvm.lifetime.end.p0(i64 8, ptr %17) #10
  %110 = load i32, ptr %13, align 4
  switch i32 %110, label %129 [
    i32 0, label %111
  ]

111:                                              ; preds = %109
  br label %77, !llvm.loop !53

112:                                              ; preds = %86
  %113 = load ptr, ptr %16, align 8, !tbaa !5
  %114 = load ptr, ptr %7, align 8, !tbaa !5
  %115 = load i64, ptr %8, align 8, !tbaa !10
  %116 = getelementptr inbounds nuw i8, ptr %114, i64 %115
  %117 = getelementptr inbounds i8, ptr %116, i64 -1
  %118 = icmp ne ptr %113, %117
  br i1 %118, label %119, label %120

119:                                              ; preds = %112
  store i32 0, ptr %6, align 4
  store i32 1, ptr %13, align 4
  br label %129

120:                                              ; preds = %112
  %121 = load i32, ptr %15, align 4, !tbaa !15
  %122 = icmp ne i32 %121, 65535
  br i1 %122, label %123, label %128

123:                                              ; preds = %120
  %124 = load i32, ptr %15, align 4, !tbaa !15
  %125 = load i32, ptr %14, align 4, !tbaa !15
  %126 = icmp ne i32 %124, %125
  br i1 %126, label %127, label %128

127:                                              ; preds = %123
  store i32 0, ptr %6, align 4
  store i32 1, ptr %13, align 4
  br label %129

128:                                              ; preds = %123, %120
  store i32 1, ptr %6, align 4
  store i32 1, ptr %13, align 4
  br label %129

129:                                              ; preds = %128, %127, %119, %109
  call void @llvm.lifetime.end.p0(i64 8, ptr %16) #10
  call void @llvm.lifetime.end.p0(i64 4, ptr %15) #10
  call void @llvm.lifetime.end.p0(i64 4, ptr %14) #10
  br label %130

130:                                              ; preds = %129, %62, %58, %49
  call void @llvm.lifetime.end.p0(i64 8, ptr %12) #10
  br label %131

131:                                              ; preds = %130, %20
  %132 = load i32, ptr %6, align 4
  ret i32 %132
}