; Function Attrs: nounwind uwtable
define dso_local range(i32 0, 2) i32 @lpValidateIntegrity(ptr noundef %0, i64 noundef %1, i32 noundef %2, ptr noundef readonly captures(address_is_null) %3, ptr noundef %4) local_unnamed_addr #3 {
  %6 = alloca ptr, align 8
  %7 = icmp ult i64 %1, 7
  br i1 %7, label %49, label %8

8:                                                ; preds = %5
  %9 = load i16, ptr %0, align 1
  %10 = zext i16 %9 to i64
  %11 = getelementptr inbounds nuw i8, ptr %0, i64 2
  %12 = load i8, ptr %11, align 1, !tbaa !5
  %13 = zext i8 %12 to i64
  %14 = shl nuw nsw i64 %13, 16
  %15 = or disjoint i64 %14, %10
  %16 = getelementptr inbounds nuw i8, ptr %0, i64 3
  %17 = load i8, ptr %16, align 1, !tbaa !5
  %18 = zext i8 %17 to i64
  %19 = shl nuw nsw i64 %18, 24
  %20 = or disjoint i64 %15, %19
  %.not = icmp eq i64 %20, %1
  br i1 %.not, label %21, label %49

21:                                               ; preds = %8
  %22 = getelementptr i8, ptr %0, i64 %1
  %23 = getelementptr i8, ptr %22, i64 -1
  %24 = load i8, ptr %23, align 1, !tbaa !5
  %.not35 = icmp eq i8 %24, -1
  br i1 %.not35, label %25, label %49

25:                                               ; preds = %21
  %.not36 = icmp eq i32 %2, 0
  br i1 %.not36, label %49, label %26

26:                                               ; preds = %25
  %27 = getelementptr inbounds nuw i8, ptr %0, i64 4
  %28 = load i8, ptr %27, align 1, !tbaa !5
  %29 = zext i8 %28 to i32
  %30 = getelementptr inbounds nuw i8, ptr %0, i64 5
  %31 = load i8, ptr %30, align 1, !tbaa !5
  %32 = zext i8 %31 to i32
  %33 = shl nuw nsw i32 %32, 8
  %34 = or disjoint i32 %33, %29
  call void @llvm.lifetime.start.p0(i64 8, ptr nonnull %6) #20
  %35 = getelementptr inbounds nuw i8, ptr %0, i64 6
  store ptr %35, ptr %6, align 8, !tbaa !13
  %.not43 = icmp eq ptr %3, null
  br i1 %.not43, label %.split.us, label %.split

.split.us:                                        ; preds = %26, %thread-pre-split.us
  %.02849.us = phi i32 [ %40, %thread-pre-split.us ], [ 0, %26 ]
  %36 = phi ptr [ %.pr.us, %thread-pre-split.us ], [ %35, %26 ]
  %37 = load i8, ptr %36, align 1, !tbaa !5
  %.not38.us = icmp eq i8 %37, -1
  br i1 %.not38.us, label %.critedge, label %38

38:                                               ; preds = %.split.us
  %39 = call i32 @lpValidateNext(ptr noundef nonnull %0, ptr noundef nonnull %6, i64 noundef %1)
  %.not42.us = icmp eq i32 %39, 0
  br i1 %.not42.us, label %.thread, label %thread-pre-split.us

thread-pre-split.us:                              ; preds = %38
  %40 = add i32 %.02849.us, 1
  %.pr.us = load ptr, ptr %6, align 8, !tbaa !13
  %.not37.us = icmp eq ptr %.pr.us, null
  br i1 %.not37.us, label %.critedge, label %.split.us

thread-pre-split:                                 ; preds = %46
  %41 = add i32 %.02849, 1
  %.pr = load ptr, ptr %6, align 8, !tbaa !13
  %.not37 = icmp eq ptr %.pr, null
  br i1 %.not37, label %.critedge, label %.split

.split:                                           ; preds = %26, %thread-pre-split
  %.02849 = phi i32 [ %41, %thread-pre-split ], [ 0, %26 ]
  %42 = phi ptr [ %.pr, %thread-pre-split ], [ %35, %26 ]
  %43 = load i8, ptr %42, align 1, !tbaa !5
  %.not38 = icmp eq i8 %43, -1
  br i1 %.not38, label %.critedge, label %44

44:                                               ; preds = %.split
  %45 = call i32 @lpValidateNext(ptr noundef nonnull %0, ptr noundef nonnull %6, i64 noundef %1)
  %.not42 = icmp eq i32 %45, 0
  br i1 %.not42, label %.thread, label %46

46:                                               ; preds = %44
  %47 = tail call i32 %3(ptr noundef nonnull %42, i32 noundef %34, ptr noundef %4) #20
  %.not44 = icmp eq i32 %47, 0
  br i1 %.not44, label %.thread, label %thread-pre-split

.critedge:                                        ; preds = %.split, %thread-pre-split, %.split.us, %thread-pre-split.us
  %.us-phi = phi ptr [ null, %thread-pre-split.us ], [ %36, %.split.us ], [ null, %thread-pre-split ], [ %42, %.split ]
  %.us-phi50 = phi i32 [ %40, %thread-pre-split.us ], [ %.02849.us, %.split.us ], [ %41, %thread-pre-split ], [ %.02849, %.split ]
  %.not39 = icmp eq ptr %.us-phi, %23
  br i1 %.not39, label %48, label %.thread

48:                                               ; preds = %.critedge
  %.not40 = icmp eq i32 %34, 65535
  %.not41 = icmp eq i32 %34, %.us-phi50
  %or.cond = select i1 %.not40, i1 true, i1 %.not41
  %spec.select = zext i1 %or.cond to i32
  br label %.thread

.thread:                                          ; preds = %44, %46, %38, %48, %.critedge
  %.4 = phi i32 [ 0, %.critedge ], [ %spec.select, %48 ], [ 0, %38 ], [ 0, %46 ], [ 0, %44 ]
  call void @llvm.lifetime.end.p0(i64 8, ptr nonnull %6) #20
  br label %49

49:                                               ; preds = %.thread, %8, %21, %25, %5
  %.0 = phi i32 [ 0, %5 ], [ %.4, %.thread ], [ 0, %8 ], [ 0, %21 ], [ 1, %25 ]
  ret i32 %.0
}